; Function Attrs: mustprogress nounwind uwtable
define hidden noundef ptr @_ZN11FileMapInfo17create_path_arrayEPKc(ptr nocapture noundef nonnull readonly align 8 dereferenceable(40) %0, ptr noundef %1) local_unnamed_addr #0 align 2 {
  %3 = alloca %class.ClasspathStream, align 8
  %4 = alloca %struct.stat, align 8
  %5 = alloca ptr, align 8
  %6 = tail call noundef ptr @_Z23resource_allocate_bytesmN17AllocFailStrategy13AllocFailEnumE(i64 noundef 24, i32 noundef 0) #25
  %7 = tail call noundef ptr @_ZN30GrowableArrayResourceAllocator8allocateEii(i32 noundef 10, i32 noundef 8) #25
  store i32 0, ptr %6, align 4
  %8 = getelementptr inbounds i8, ptr %6, i64 4
  store i32 10, ptr %8, align 4
  %9 = getelementptr inbounds i8, ptr %6, i64 8
  store ptr %7, ptr %9, align 8
  tail call void @llvm.memset.p0.i64(ptr noundef nonnull align 8 dereferenceable(80) %7, i8 0, i64 80, i1 false)
  %10 = getelementptr inbounds i8, ptr %6, i64 16
  store i64 0, ptr %10, align 8
  %11 = tail call align 8 ptr @llvm.threadlocal.address.p0(ptr align 8 @_ZN6Thread12_thr_currentE)
  %12 = load ptr, ptr %11, align 8
  store ptr %1, ptr %3, align 8
  %13 = tail call i64 @strlen(ptr noundef nonnull dereferenceable(1) %1) #26
  %14 = trunc i64 %13 to i32
  %15 = getelementptr inbounds i8, ptr %3, i64 8
  store i32 %14, ptr %15, align 8
  %16 = getelementptr inbounds i8, ptr %3, i64 12
  store i32 0, ptr %16, align 4
  %17 = getelementptr inbounds i8, ptr %3, i64 16
  store i32 0, ptr %17, align 8
  %18 = icmp sgt i32 %14, 0
  br i1 %18, label %.lr.ph, label %._crit_edge

.lr.ph:                                           ; preds = %2
  %19 = getelementptr inbounds i8, ptr %0, i64 32
  %20 = load ptr, ptr %19, align 8
  %21 = getelementptr inbounds i8, ptr %20, i64 440
  %22 = load i8, ptr %21, align 8
  %.fr15 = freeze i8 %22
  %23 = trunc i8 %.fr15 to i1
  br i1 %23, label %.lr.ph.split.us, label %.lr.ph.split

.lr.ph.split.us:                                  ; preds = %.lr.ph, %50
  %24 = call noundef ptr @_ZN15ClasspathStream8get_nextEv(ptr noundef nonnull align 8 dereferenceable(20) %3) #25
  %25 = call noundef ptr @_ZN11ClassLoader18get_canonical_pathEPKcP6Thread(ptr noundef %24, ptr noundef %12) #25
  %.not.us = icmp eq ptr %25, null
  br i1 %.not.us, label %50, label %26

26:                                               ; preds = %.lr.ph.split.us
  store ptr null, ptr %5, align 8
  %27 = call noundef ptr @_ZN11ClassLoader13open_zip_fileEPKcPPcP10JavaThread(ptr noundef nonnull %25, ptr noundef nonnull %5, ptr noundef %12) #25
  %28 = icmp ne ptr %27, null
  %29 = load ptr, ptr %5, align 8
  %30 = icmp eq ptr %29, null
  %or.cond.us = select i1 %28, i1 %30, i1 false
  br i1 %or.cond.us, label %31, label %50

31:                                               ; preds = %26
  %32 = load i32, ptr %6, align 8
  %33 = load i32, ptr %8, align 4
  %34 = icmp eq i32 %32, %33
  br i1 %34, label %35, label %_ZN26GrowableArrayWithAllocatorIPKc13GrowableArrayIS1_EE6appendERKS1_.exit13.us

35:                                               ; preds = %31
  %36 = add nsw i32 %32, 1
  %37 = icmp sgt i32 %32, -1
  %38 = xor i32 %32, -2147483648
  %39 = and i32 %38, %36
  %40 = icmp eq i32 %39, 0
  %41 = and i1 %37, %40
  %42 = call range(i32 0, 33) i32 @llvm.ctlz.i32(i32 %36, i1 true)
  %43 = sub nuw nsw i32 32, %42
  %44 = shl nuw i32 1, %43
  %.0.i.i.i.i11.us = select i1 %41, i32 %36, i32 %44
  call void @_ZN26GrowableArrayWithAllocatorIPKc13GrowableArrayIS1_EE9expand_toEi(ptr noundef nonnull align 8 dereferenceable(16) %6, i32 noundef %.0.i.i.i.i11.us)
  %.pre.i12.us = load i32, ptr %6, align 8
  br label %_ZN26GrowableArrayWithAllocatorIPKc13GrowableArrayIS1_EE6appendERKS1_.exit13.us

_ZN26GrowableArrayWithAllocatorIPKc13GrowableArrayIS1_EE6appendERKS1_.exit13.us: ; preds = %35, %31
  %45 = phi i32 [ %.pre.i12.us, %35 ], [ %32, %31 ]
  %46 = add nsw i32 %45, 1
  store i32 %46, ptr %6, align 8
  %47 = load ptr, ptr %9, align 8
  %48 = sext i32 %45 to i64
  %49 = getelementptr inbounds ptr, ptr %47, i64 %48
  store ptr %24, ptr %49, align 8
  br label %50

50:                                               ; preds = %_ZN26GrowableArrayWithAllocatorIPKc13GrowableArrayIS1_EE6appendERKS1_.exit13.us, %26, %.lr.ph.split.us
  %51 = load i32, ptr %16, align 4
  %52 = load i32, ptr %15, align 8
  %53 = icmp slt i32 %51, %52
  br i1 %53, label %.lr.ph.split.us, label %._crit_edge, !llvm.loop !21

.lr.ph.split:                                     ; preds = %.lr.ph, %76
  %54 = call noundef ptr @_ZN15ClasspathStream8get_nextEv(ptr noundef nonnull align 8 dereferenceable(20) %3) #25
  %55 = call noundef i32 @_ZN2os4statEPKcP4stat(ptr noundef %54, ptr noundef nonnull %4) #25
  %56 = icmp eq i32 %55, 0
  br i1 %56, label %57, label %76

57:                                               ; preds = %.lr.ph.split
  %58 = load i32, ptr %6, align 8
  %59 = load i32, ptr %8, align 4
  %60 = icmp eq i32 %58, %59
  br i1 %60, label %61, label %_ZN26GrowableArrayWithAllocatorIPKc13GrowableArrayIS1_EE6appendERKS1_.exit

61:                                               ; preds = %57
  %62 = add nsw i32 %58, 1
  %63 = icmp sgt i32 %58, -1
  %64 = xor i32 %58, -2147483648
  %65 = and i32 %64, %62
  %66 = icmp eq i32 %65, 0
  %67 = and i1 %63, %66
  %68 = call range(i32 0, 33) i32 @llvm.ctlz.i32(i32 %62, i1 true)
  %69 = sub nuw nsw i32 32, %68
  %70 = shl nuw i32 1, %69
  %.0.i.i.i.i = select i1 %67, i32 %62, i32 %70
  call void @_ZN26GrowableArrayWithAllocatorIPKc13GrowableArrayIS1_EE9expand_toEi(ptr noundef nonnull align 8 dereferenceable(16) %6, i32 noundef %.0.i.i.i.i)
  %.pre.i = load i32, ptr %6, align 8
  br label %_ZN26GrowableArrayWithAllocatorIPKc13GrowableArrayIS1_EE6appendERKS1_.exit

_ZN26GrowableArrayWithAllocatorIPKc13GrowableArrayIS1_EE6appendERKS1_.exit: ; preds = %57, %61
  %71 = phi i32 [ %.pre.i, %61 ], [ %58, %57 ]
  %72 = add nsw i32 %71, 1
  store i32 %72, ptr %6, align 8
  %73 = load ptr, ptr %9, align 8
  %74 = sext i32 %71 to i64
  %75 = getelementptr inbounds ptr, ptr %73, i64 %74
  store ptr %54, ptr %75, align 8
  br label %76

76:                                               ; preds = %.lr.ph.split, %_ZN26GrowableArrayWithAllocatorIPKc13GrowableArrayIS1_EE6appendERKS1_.exit
  %77 = load i32, ptr %16, align 4
  %78 = load i32, ptr %15, align 8
  %79 = icmp slt i32 %77, %78
  br i1 %79, label %.lr.ph.split, label %._crit_edge, !llvm.loop !21

._crit_edge:                                      ; preds = %76, %50, %2
  ret ptr %6
}